target datalayout = "e-m:e-p270:32:32-p271:32:32-p272:64:64-i64:64-i128:128-f80:128-n8:16:32:64-S128"
target triple = "x86_64-pc-linux-gnu"

%struct.AVFilterContext = type { ptr, ptr, ptr, ptr, ptr, i32, ptr, ptr, i32, ptr, ptr, i32, i32, ptr, ptr, ptr, ptr, i32, ptr, i32, i32 }
%struct.AVChannelLayout = type { i32, i32, %union.anon, ptr }
%union.anon = type { i64 }
%struct.BufferSinkContext = type { ptr, i32, i32, ptr, i32, ptr, i32, ptr, i32, ptr, i32, ptr, i32, ptr, i32, ptr, i32, ptr, i32, ptr, i32, ptr, i32, ptr, i32, ptr, i32, ptr }

; Function Attrs: nounwind uwtable
define internal i32 @init_audio(ptr noundef %0) #0 {
  %2 = alloca i32, align 4
  %3 = alloca ptr, align 8
  %4 = alloca ptr, align 8
  %5 = alloca ptr, align 8
  %6 = alloca i32, align 4
  %7 = alloca ptr, align 8
  %8 = alloca ptr, align 8
  %9 = alloca %struct.AVChannelLayout, align 8
  store ptr %0, ptr %3, align 8, !tbaa !4
  call void @llvm.lifetime.start.p0(i64 8, ptr %4) #9
  %10 = load ptr, ptr %3, align 8, !tbaa !4
  %11 = getelementptr inbounds nuw %struct.AVFilterContext, ptr %10, i32 0, i32 9
  %12 = load ptr, ptr %11, align 8, !tbaa !37
  store ptr %12, ptr %4, align 8, !tbaa !38
  %13 = load ptr, ptr %4, align 8, !tbaa !38
  %14 = getelementptr inbounds nuw %struct.BufferSinkContext, ptr %13, i32 0, i32 21
  %15 = load ptr, ptr %14, align 8, !tbaa !101
  %16 = icmp ne ptr %15, null
  br i1 %16, label %17, label %45

17:                                               ; preds = %1
  call void @llvm.lifetime.start.p0(i64 8, ptr %5) #9
  %18 = load ptr, ptr %4, align 8, !tbaa !38
  %19 = getelementptr inbounds nuw %struct.BufferSinkContext, ptr %18, i32 0, i32 21
  %20 = load ptr, ptr %19, align 8, !tbaa !101
  %21 = load ptr, ptr %4, align 8, !tbaa !38
  %22 = getelementptr inbounds nuw %struct.BufferSinkContext, ptr %21, i32 0, i32 22
  %23 = load i32, ptr %22, align 8, !tbaa !102
  %24 = add i32 %23, 1
  %25 = zext i32 %24 to i64
  %26 = call ptr @av_realloc_array(ptr noundef %20, i64 noundef %25, i64 noundef 4)
  store ptr %26, ptr %5, align 8, !tbaa !78
  %27 = load ptr, ptr %5, align 8, !tbaa !78
  %28 = icmp ne ptr %27, null
  br i1 %28, label %30, label %29

29:                                               ; preds = %17
  store i32 -12, ptr %2, align 4
  store i32 1, ptr %6, align 4
  br label %42

30:                                               ; preds = %17
  %31 = load ptr, ptr %5, align 8, !tbaa !78
  %32 = load ptr, ptr %4, align 8, !tbaa !38
  %33 = getelementptr inbounds nuw %struct.BufferSinkContext, ptr %32, i32 0, i32 21
  store ptr %31, ptr %33, align 8, !tbaa !101
  %34 = load ptr, ptr %4, align 8, !tbaa !38
  %35 = getelementptr inbounds nuw %struct.BufferSinkContext, ptr %34, i32 0, i32 21
  %36 = load ptr, ptr %35, align 8, !tbaa !101
  %37 = load ptr, ptr %4, align 8, !tbaa !38
  %38 = getelementptr inbounds nuw %struct.BufferSinkContext, ptr %37, i32 0, i32 22
  %39 = load i32, ptr %38, align 8, !tbaa !102
  %40 = zext i32 %39 to i64
  %41 = getelementptr inbounds nuw i32, ptr %36, i64 %40
  store i32 -1, ptr %41, align 4, !tbaa !11
  store i32 0, ptr %6, align 4
  br label %42

42:                                               ; preds = %30, %29
  call void @llvm.lifetime.end.p0(i64 8, ptr %5) #9
  %43 = load i32, ptr %6, align 4
  switch i32 %43, label %114 [
    i32 0, label %44
  ]

44:                                               ; preds = %42
  br label %45

45:                                               ; preds = %44, %1
  %46 = load ptr, ptr %4, align 8, !tbaa !38
  %47 = getelementptr inbounds nuw %struct.BufferSinkContext, ptr %46, i32 0, i32 23
  %48 = load ptr, ptr %47, align 8, !tbaa !103
  %49 = icmp ne ptr %48, null
  br i1 %49, label %50, label %78

50:                                               ; preds = %45
  call void @llvm.lifetime.start.p0(i64 8, ptr %7) #9
  %51 = load ptr, ptr %4, align 8, !tbaa !38
  %52 = getelementptr inbounds nuw %struct.BufferSinkContext, ptr %51, i32 0, i32 23
  %53 = load ptr, ptr %52, align 8, !tbaa !103
  %54 = load ptr, ptr %4, align 8, !tbaa !38
  %55 = getelementptr inbounds nuw %struct.BufferSinkContext, ptr %54, i32 0, i32 24
  %56 = load i32, ptr %55, align 8, !tbaa !104
  %57 = add i32 %56, 1
  %58 = zext i32 %57 to i64
  %59 = call ptr @av_realloc_array(ptr noundef %53, i64 noundef %58, i64 noundef 4)
  store ptr %59, ptr %7, align 8, !tbaa !78
  %60 = load ptr, ptr %7, align 8, !tbaa !78
  %61 = icmp ne ptr %60, null
  br i1 %61, label %63, label %62

62:                                               ; preds = %50
  store i32 -12, ptr %2, align 4
  store i32 1, ptr %6, align 4
  br label %75

63:                                               ; preds = %50
  %64 = load ptr, ptr %7, align 8, !tbaa !78
  %65 = load ptr, ptr %4, align 8, !tbaa !38
  %66 = getelementptr inbounds nuw %struct.BufferSinkContext, ptr %65, i32 0, i32 23
  store ptr %64, ptr %66, align 8, !tbaa !103
  %67 = load ptr, ptr %4, align 8, !tbaa !38
  %68 = getelementptr inbounds nuw %struct.BufferSinkContext, ptr %67, i32 0, i32 23
  %69 = load ptr, ptr %68, align 8, !tbaa !103
  %70 = load ptr, ptr %4, align 8, !tbaa !38
  %71 = getelementptr inbounds nuw %struct.BufferSinkContext, ptr %70, i32 0, i32 24
  %72 = load i32, ptr %71, align 8, !tbaa !104
  %73 = zext i32 %72 to i64
  %74 = getelementptr inbounds nuw i32, ptr %69, i64 %73
  store i32 -1, ptr %74, align 4, !tbaa !11
  store i32 0, ptr %6, align 4
  br label %75

75:                                               ; preds = %63, %62
  call void @llvm.lifetime.end.p0(i64 8, ptr %7) #9
  %76 = load i32, ptr %6, align 4
  switch i32 %76, label %114 [
    i32 0, label %77
  ]

77:                                               ; preds = %75
  br label %78

78:                                               ; preds = %77, %45
  %79 = load ptr, ptr %4, align 8, !tbaa !38
  %80 = getelementptr inbounds nuw %struct.BufferSinkContext, ptr %79, i32 0, i32 25
  %81 = load ptr, ptr %80, align 8, !tbaa !105
  %82 = icmp ne ptr %81, null
  br i1 %82, label %83, label %111

83:                                               ; preds = %78
  call void @llvm.lifetime.start.p0(i64 8, ptr %8) #9
  %84 = load ptr, ptr %4, align 8, !tbaa !38
  %85 = getelementptr inbounds nuw %struct.BufferSinkContext, ptr %84, i32 0, i32 25
  %86 = load ptr, ptr %85, align 8, !tbaa !105
  %87 = load ptr, ptr %4, align 8, !tbaa !38
  %88 = getelementptr inbounds nuw %struct.BufferSinkContext, ptr %87, i32 0, i32 26
  %89 = load i32, ptr %88, align 8, !tbaa !106
  %90 = add i32 %89, 1
  %91 = zext i32 %90 to i64
  %92 = call ptr @av_realloc_array(ptr noundef %86, i64 noundef %91, i64 noundef 24)
  store ptr %92, ptr %8, align 8, !tbaa !78
  %93 = load ptr, ptr %8, align 8, !tbaa !78
  %94 = icmp ne ptr %93, null
  br i1 %94, label %96, label %95

95:                                               ; preds = %83
  store i32 -12, ptr %2, align 4
  store i32 1, ptr %6, align 4
  br label %108

96:                                               ; preds = %83
  %97 = load ptr, ptr %8, align 8, !tbaa !78
  %98 = load ptr, ptr %4, align 8, !tbaa !38
  %99 = getelementptr inbounds nuw %struct.BufferSinkContext, ptr %98, i32 0, i32 25
  store ptr %97, ptr %99, align 8, !tbaa !105
  %100 = load ptr, ptr %4, align 8, !tbaa !38
  %101 = getelementptr inbounds nuw %struct.BufferSinkContext, ptr %100, i32 0, i32 25
  %102 = load ptr, ptr %101, align 8, !tbaa !105
  %103 = load ptr, ptr %4, align 8, !tbaa !38
  %104 = getelementptr inbounds nuw %struct.BufferSinkContext, ptr %103, i32 0, i32 26
  %105 = load i32, ptr %104, align 8, !tbaa !106
  %106 = zext i32 %105 to i64
  %107 = getelementptr inbounds nuw %struct.AVChannelLayout, ptr %102, i64 %106
  call void @llvm.memset.p0.i64(ptr align 8 %9, i8 0, i64 24, i1 false)
  call void @llvm.memcpy.p0.p0.i64(ptr align 8 %107, ptr align 8 %9, i64 24, i1 false), !tbaa.struct !76
  store i32 0, ptr %6, align 4
  br label %108

108:                                              ; preds = %96, %95
  call void @llvm.lifetime.end.p0(i64 8, ptr %8) #9
  %109 = load i32, ptr %6, align 4
  switch i32 %109, label %114 [
    i32 0, label %110
  ]

110:                                              ; preds = %108
  br label %111

111:                                              ; preds = %110, %78
  %112 = load ptr, ptr %3, align 8, !tbaa !4
  %113 = call i32 @common_init(ptr noundef %112) #11
  store i32 %113, ptr %2, align 4
  store i32 1, ptr %6, align 4
  br label %114

114:                                              ; preds = %111, %108, %75, %42
  call void @llvm.lifetime.end.p0(i64 8, ptr %4) #9
  %115 = load i32, ptr %2, align 4
  ret i32 %115
}